target datalayout = "e-m:e-p270:32:32-p271:32:32-p272:64:64-i64:64-i128:128-f80:128-n8:16:32:64-S128"
target triple = "x86_64-pc-linux-gnu"

%class.QString = type { ptr }
%class.SSAO = type <{ %class.DecorateShader, float, float, i32, i32, i32, i32, i32, i32, i32, i32, i32, i32, i32, i32, i32, i32, i32, i32, i32, [4 x i8] }>
%class.DecorateShader = type { ptr, i8, i32, i32, i32 }
%class.QPaintDevice = type { ptr, i16, ptr }
%class.QImage = type { %class.QPaintDevice, ptr }

@.str.26 = private unnamed_addr constant [11 x i8] c"_noise.png\00", align 1
@.str.27 = private unnamed_addr constant [4 x i8] c"PNG\00", align 1

; Function Attrs: mustprogress uwtable
define linkonce_odr void @_ZN7QStringC2EPKc(ptr noundef nonnull align 8 dereferenceable(8) %0, ptr noundef %1) unnamed_addr #1 comdat align 2 {
  %3 = alloca ptr, align 8
  %4 = alloca ptr, align 8
  store ptr %0, ptr %3, align 8
  store ptr %1, ptr %4, align 8
  %5 = load ptr, ptr %3, align 8
  %6 = getelementptr inbounds %class.QString, ptr %5, i32 0, i32 0
  %7 = load ptr, ptr %4, align 8
  %8 = load ptr, ptr %4, align 8
  %9 = icmp ne ptr %8, null
  br i1 %9, label %10, label %14

10:                                               ; preds = %2
  %11 = load ptr, ptr %4, align 8
  %12 = call i64 @strlen(ptr noundef %11) #22
  %13 = trunc i64 %12 to i32
  br label %15

14:                                               ; preds = %2
  br label %15

15:                                               ; preds = %14, %10
  %16 = phi i32 [ %13, %10 ], [ -1, %14 ]
  %17 = call noundef ptr @_ZN7QString16fromAscii_helperEPKci(ptr noundef %7, i32 noundef %16)
  store ptr %17, ptr %6, align 8
  ret void
}

; Function Attrs: mustprogress uwtable
define linkonce_odr void @_ZNKR6QImage8mirroredEbb(ptr dead_on_unwind noalias writable sret(%class.QImage) align 8 %0, ptr noundef nonnull align 8 dereferenceable(32) %1, i1 noundef zeroext %2, i1 noundef zeroext %3) #1 comdat align 2 {
  %5 = alloca ptr, align 8
  %6 = alloca ptr, align 8
  %7 = alloca i8, align 1
  %8 = alloca i8, align 1
  store ptr %0, ptr %5, align 8
  store ptr %1, ptr %6, align 8
  %9 = zext i1 %2 to i8
  store i8 %9, ptr %7, align 1
  %10 = zext i1 %3 to i8
  store i8 %10, ptr %8, align 1
  %11 = load ptr, ptr %6, align 8
  %12 = load i8, ptr %7, align 1
  %13 = trunc i8 %12 to i1
  %14 = load i8, ptr %8, align 1
  %15 = trunc i8 %14 to i1
  call void @_ZNK6QImage15mirrored_helperEbb(ptr dead_on_unwind writable sret(%class.QImage) align 8 %0, ptr noundef nonnull align 8 dereferenceable(32) %11, i1 noundef zeroext %13, i1 noundef zeroext %15)
  ret void
}

; Function Attrs: mustprogress nounwind uwtable
define linkonce_odr noundef i32 @_Z4qRgbiii(i32 noundef %0, i32 noundef %1, i32 noundef %2) #0 comdat {
  %4 = alloca i32, align 4
  %5 = alloca i32, align 4
  %6 = alloca i32, align 4
  store i32 %0, ptr %4, align 4
  store i32 %1, ptr %5, align 4
  store i32 %2, ptr %6, align 4
  %7 = load i32, ptr %4, align 4
  %8 = and i32 %7, 255
  %9 = shl i32 %8, 16
  %10 = or i32 -16777216, %9
  %11 = load i32, ptr %5, align 4
  %12 = and i32 %11, 255
  %13 = shl i32 %12, 8
  %14 = or i32 %10, %13
  %15 = load i32, ptr %6, align 4
  %16 = and i32 %15, 255
  %17 = or i32 %14, %16
  ret i32 %17
}

; Function Attrs: mustprogress uwtable
define void @_ZN4SSAO13printNoiseTxtEv(ptr noundef nonnull align 8 dereferenceable(100) %0) #1 align 2 personality ptr @__gxx_personality_v0 {
  %2 = alloca ptr, align 8
  %3 = alloca %class.QImage, align 8
  %4 = alloca ptr, align 8
  %5 = alloca ptr, align 8
  %6 = alloca i32, align 4
  %7 = alloca ptr, align 8
  %8 = alloca i32, align 4
  %9 = alloca ptr, align 8
  %10 = alloca i32, align 4
  %11 = alloca %class.QImage, align 8
  %12 = alloca %class.QString, align 8
  store ptr %0, ptr %2, align 8
  %13 = load ptr, ptr %2, align 8
  %14 = getelementptr inbounds %class.SSAO, ptr %13, i32 0, i32 3
  %15 = load i32, ptr %14, align 8
  %16 = getelementptr inbounds %class.SSAO, ptr %13, i32 0, i32 4
  %17 = load i32, ptr %16, align 4
  call void @_ZN6QImageC1EiiNS_6FormatE(ptr noundef nonnull align 8 dereferenceable(32) %3, i32 noundef %15, i32 noundef %17, i32 noundef 4)
  %18 = getelementptr inbounds %class.SSAO, ptr %13, i32 0, i32 3
  %19 = load i32, ptr %18, align 8
  %20 = getelementptr inbounds %class.SSAO, ptr %13, i32 0, i32 4
  %21 = load i32, ptr %20, align 4
  %22 = mul nsw i32 %19, %21
  %23 = mul nsw i32 %22, 3
  %24 = sext i32 %23 to i64
  %25 = invoke noalias noundef nonnull ptr @_Znam(i64 noundef %24) #21
          to label %26 unwind label %71

26:                                               ; preds = %1
  store ptr %25, ptr %4, align 8
  %27 = load ptr, ptr %4, align 8
  store ptr %27, ptr %7, align 8
  %28 = getelementptr inbounds %class.SSAO, ptr %13, i32 0, i32 7
  %29 = load i32, ptr %28, align 8
  invoke void @glBindTexture(i32 noundef 3553, i32 noundef %29)
          to label %30 unwind label %71

30:                                               ; preds = %26
  %31 = load ptr, ptr %7, align 8
  invoke void @glGetTexImage(i32 noundef 3553, i32 noundef 0, i32 noundef 6407, i32 noundef 5121, ptr noundef %31)
          to label %32 unwind label %71

32:                                               ; preds = %30
  store i32 0, ptr %8, align 4
  br label %33

33:                                               ; preds = %76, %32
  %34 = load i32, ptr %8, align 4
  %35 = getelementptr inbounds %class.SSAO, ptr %13, i32 0, i32 3
  %36 = load i32, ptr %35, align 8
  %37 = icmp slt i32 %34, %36
  br i1 %37, label %38, label %79

38:                                               ; preds = %33
  %39 = load i32, ptr %8, align 4
  %40 = invoke noundef ptr @_ZN6QImage8scanLineEi(ptr noundef nonnull align 8 dereferenceable(32) %3, i32 noundef %39)
          to label %41 unwind label %71

41:                                               ; preds = %38
  store ptr %40, ptr %9, align 8
  store i32 0, ptr %10, align 4
  br label %42

42:                                               ; preds = %68, %41
  %43 = load i32, ptr %10, align 4
  %44 = getelementptr inbounds %class.SSAO, ptr %13, i32 0, i32 4
  %45 = load i32, ptr %44, align 4
  %46 = icmp slt i32 %43, %45
  br i1 %46, label %47, label %75

47:                                               ; preds = %42
  %48 = load ptr, ptr %7, align 8
  %49 = getelementptr inbounds i8, ptr %48, i64 0
  %50 = load i8, ptr %49, align 1
  %51 = zext i8 %50 to i32
  %52 = load ptr, ptr %7, align 8
  %53 = getelementptr inbounds i8, ptr %52, i64 1
  %54 = load i8, ptr %53, align 1
  %55 = zext i8 %54 to i32
  %56 = load ptr, ptr %7, align 8
  %57 = getelementptr inbounds i8, ptr %56, i64 2
  %58 = load i8, ptr %57, align 1
  %59 = zext i8 %58 to i32
  %60 = invoke noundef i32 @_Z4qRgbiii(i32 noundef %51, i32 noundef %55, i32 noundef %59)
          to label %61 unwind label %71

61:                                               ; preds = %47
  %62 = load ptr, ptr %9, align 8
  %63 = load i32, ptr %10, align 4
  %64 = sext i32 %63 to i64
  %65 = getelementptr inbounds i32, ptr %62, i64 %64
  store i32 %60, ptr %65, align 4
  %66 = load ptr, ptr %7, align 8
  %67 = getelementptr inbounds i8, ptr %66, i64 3
  store ptr %67, ptr %7, align 8
  br label %68

68:                                               ; preds = %61
  %69 = load i32, ptr %10, align 4
  %70 = add nsw i32 %69, 1
  store i32 %70, ptr %10, align 4
  br label %42, !llvm.loop !19

71:                                               ; preds = %83, %47, %38, %30, %26, %1
  %72 = landingpad { ptr, i32 }
          cleanup
  %73 = extractvalue { ptr, i32 } %72, 0
  store ptr %73, ptr %5, align 8
  %74 = extractvalue { ptr, i32 } %72, 1
  store i32 %74, ptr %6, align 4
  br label %97

75:                                               ; preds = %42
  br label %76

76:                                               ; preds = %75
  %77 = load i32, ptr %8, align 4
  %78 = add nsw i32 %77, 1
  store i32 %78, ptr %8, align 4
  br label %33, !llvm.loop !20

79:                                               ; preds = %33
  %80 = load ptr, ptr %4, align 8
  %81 = icmp eq ptr %80, null
  br i1 %81, label %83, label %82

82:                                               ; preds = %79
  call void @_ZdaPv(ptr noundef %80) #17
  br label %83

83:                                               ; preds = %82, %79
  invoke void @_ZNKR6QImage8mirroredEbb(ptr dead_on_unwind writable sret(%class.QImage) align 8 %11, ptr noundef nonnull align 8 dereferenceable(32) %3, i1 noundef zeroext false, i1 noundef zeroext true)
          to label %84 unwind label %71

84:                                               ; preds = %83
  invoke void @_ZN7QStringC2EPKc(ptr noundef nonnull align 8 dereferenceable(8) %12, ptr noundef @.str.26)
          to label %85 unwind label %88

85:                                               ; preds = %84
  %86 = invoke noundef zeroext i1 @_ZNK6QImage4saveERK7QStringPKci(ptr noundef nonnull align 8 dereferenceable(32) %11, ptr noundef nonnull align 8 dereferenceable(8) %12, ptr noundef @.str.27, i32 noundef -1)
          to label %87 unwind label %92

87:                                               ; preds = %85
  call void @_ZN7QStringD2Ev(ptr noundef nonnull align 8 dereferenceable(8) %12) #5
  call void @_ZN6QImageD1Ev(ptr noundef nonnull align 8 dereferenceable(32) %11) #5
  call void @_ZN6QImageD1Ev(ptr noundef nonnull align 8 dereferenceable(32) %3) #5
  ret void

88:                                               ; preds = %84
  %89 = landingpad { ptr, i32 }
          cleanup
  %90 = extractvalue { ptr, i32 } %89, 0
  store ptr %90, ptr %5, align 8
  %91 = extractvalue { ptr, i32 } %89, 1
  store i32 %91, ptr %6, align 4
  br label %96

92:                                               ; preds = %85
  %93 = landingpad { ptr, i32 }
          cleanup
  %94 = extractvalue { ptr, i32 } %93, 0
  store ptr %94, ptr %5, align 8
  %95 = extractvalue { ptr, i32 } %93, 1
  store i32 %95, ptr %6, align 4
  call void @_ZN7QStringD2Ev(ptr noundef nonnull align 8 dereferenceable(8) %12) #5
  br label %96

96:                                               ; preds = %92, %88
  call void @_ZN6QImageD1Ev(ptr noundef nonnull align 8 dereferenceable(32) %11) #5
  br label %97

97:                                               ; preds = %96, %71
  call void @_ZN6QImageD1Ev(ptr noundef nonnull align 8 dereferenceable(32) %3) #5
  br label %98

98:                                               ; preds = %97
  %99 = load ptr, ptr %5, align 8
  %100 = load i32, ptr %6, align 4
  %101 = insertvalue { ptr, i32 } poison, ptr %99, 0
  %102 = insertvalue { ptr, i32 } %101, i32 %100, 1
  resume { ptr, i32 } %102
}