; Function Attrs: mustprogress uwtable
define void @_ZN4SSAO13printNoiseTxtEv(ptr nocapture noundef nonnull readonly align 8 dereferenceable(100) %0) local_unnamed_addr #1 align 2 personality ptr @__gxx_personality_v0 {
  %2 = alloca %class.QImage, align 8
  %3 = alloca %class.QImage, align 8
  %4 = alloca %class.QString, align 8
  %5 = getelementptr inbounds i8, ptr %0, i64 32
  %6 = load i32, ptr %5, align 8
  %7 = getelementptr inbounds i8, ptr %0, i64 36
  %8 = load i32, ptr %7, align 4
  call void @_ZN6QImageC1EiiNS_6FormatE(ptr noundef nonnull align 8 dereferenceable(32) %2, i32 noundef %6, i32 noundef %8, i32 noundef 4)
  %9 = load i32, ptr %5, align 8
  %10 = load i32, ptr %7, align 4
  %11 = mul i32 %9, 3
  %12 = mul i32 %11, %10
  %13 = sext i32 %12 to i64
  %14 = invoke noalias noundef nonnull ptr @_Znam(i64 noundef %13) #26
          to label %15 unwind label %.loopexit.split-lp

15:                                               ; preds = %1
  %16 = getelementptr inbounds i8, ptr %0, i64 48
  %17 = load i32, ptr %16, align 8
  invoke void @glBindTexture(i32 noundef 3553, i32 noundef %17)
          to label %18 unwind label %.loopexit.split-lp

18:                                               ; preds = %15
  invoke void @glGetTexImage(i32 noundef 3553, i32 noundef 0, i32 noundef 6407, i32 noundef 5121, ptr noundef nonnull %14)
          to label %.preheader25 unwind label %.loopexit.split-lp

.preheader25:                                     ; preds = %18
  %19 = load i32, ptr %5, align 8
  %20 = icmp sgt i32 %19, 0
  br i1 %20, label %.lr.ph30, label %._crit_edge31

.lr.ph30:                                         ; preds = %.preheader25, %._crit_edge
  %.01729 = phi i32 [ %42, %._crit_edge ], [ 0, %.preheader25 ]
  %.01828 = phi ptr [ %.119.lcssa, %._crit_edge ], [ %14, %.preheader25 ]
  %21 = invoke noundef ptr @_ZN6QImage8scanLineEi(ptr noundef nonnull align 8 dereferenceable(32) %2, i32 noundef %.01729)
          to label %.preheader unwind label %.loopexit

.preheader:                                       ; preds = %.lr.ph30
  %22 = load i32, ptr %7, align 4
  %23 = icmp sgt i32 %22, 0
  br i1 %23, label %.lr.ph, label %._crit_edge

.lr.ph:                                           ; preds = %.preheader, %.lr.ph
  %indvars.iv = phi i64 [ %indvars.iv.next, %.lr.ph ], [ 0, %.preheader ]
  %.11926 = phi ptr [ %38, %.lr.ph ], [ %.01828, %.preheader ]
  %24 = load i8, ptr %.11926, align 1
  %25 = zext i8 %24 to i32
  %26 = getelementptr inbounds i8, ptr %.11926, i64 1
  %27 = load i8, ptr %26, align 1
  %28 = zext i8 %27 to i32
  %29 = getelementptr inbounds i8, ptr %.11926, i64 2
  %30 = load i8, ptr %29, align 1
  %31 = zext i8 %30 to i32
  %32 = shl nuw nsw i32 %25, 16
  %33 = shl nuw nsw i32 %28, 8
  %34 = or disjoint i32 %32, %33
  %35 = or disjoint i32 %34, %31
  %36 = or disjoint i32 %35, -16777216
  %37 = getelementptr inbounds i32, ptr %21, i64 %indvars.iv
  store i32 %36, ptr %37, align 4
  %38 = getelementptr inbounds i8, ptr %.11926, i64 3
  %indvars.iv.next = add nuw nsw i64 %indvars.iv, 1
  %39 = load i32, ptr %7, align 4
  %40 = sext i32 %39 to i64
  %41 = icmp slt i64 %indvars.iv.next, %40
  br i1 %41, label %.lr.ph, label %._crit_edge, !llvm.loop !34

.loopexit:                                        ; preds = %.lr.ph30
  %lpad.loopexit = landingpad { ptr, i32 }
          cleanup
  br label %58

.loopexit.split-lp:                               ; preds = %1, %15, %18, %._crit_edge31
  %lpad.loopexit.split-lp = landingpad { ptr, i32 }
          cleanup
  br label %58

._crit_edge:                                      ; preds = %.lr.ph, %.preheader
  %.119.lcssa = phi ptr [ %.01828, %.preheader ], [ %38, %.lr.ph ]
  %42 = add nuw nsw i32 %.01729, 1
  %43 = load i32, ptr %5, align 8
  %44 = icmp slt i32 %42, %43
  br i1 %44, label %.lr.ph30, label %._crit_edge31, !llvm.loop !35

._crit_edge31:                                    ; preds = %._crit_edge, %.preheader25
  call void @_ZdaPv(ptr noundef nonnull %14) #22
  invoke void @_ZNK6QImage15mirrored_helperEbb(ptr dead_on_unwind nonnull writable sret(%class.QImage) align 8 %3, ptr noundef nonnull align 8 dereferenceable(32) %2, i1 noundef zeroext false, i1 noundef zeroext true)
          to label %_ZNKR6QImage8mirroredEbb.exit unwind label %.loopexit.split-lp

_ZNKR6QImage8mirroredEbb.exit:                    ; preds = %._crit_edge31
  %45 = invoke noundef ptr @_ZN7QString16fromAscii_helperEPKci(ptr noundef nonnull @.str.26, i32 noundef 10)
          to label %46 unwind label %53

46:                                               ; preds = %_ZNKR6QImage8mirroredEbb.exit
  store ptr %45, ptr %4, align 8
  %47 = invoke noundef zeroext i1 @_ZNK6QImage4saveERK7QStringPKci(ptr noundef nonnull align 8 dereferenceable(32) %3, ptr noundef nonnull align 8 dereferenceable(8) %4, ptr noundef nonnull @.str.27, i32 noundef -1)
          to label %48 unwind label %55

48:                                               ; preds = %46
  %49 = load ptr, ptr %4, align 8
  %50 = load atomic i32, ptr %49 monotonic, align 4
  switch i32 %50, label %_ZN9QtPrivate8RefCount5derefEv.exit.i [
    i32 0, label %_ZN9QtPrivate8RefCount5derefEv.exit.thread2.i
    i32 -1, label %_ZN7QStringD2Ev.exit
  ]

_ZN9QtPrivate8RefCount5derefEv.exit.i:            ; preds = %48
  %51 = atomicrmw sub ptr %49, i32 1 seq_cst, align 4
  %.not.i = icmp eq i32 %51, 1
  br i1 %.not.i, label %_ZN9QtPrivate8RefCount5derefEv.exit._ZN9QtPrivate8RefCount5derefEv.exit.thread2_crit_edge.i, label %_ZN7QStringD2Ev.exit

_ZN9QtPrivate8RefCount5derefEv.exit._ZN9QtPrivate8RefCount5derefEv.exit.thread2_crit_edge.i: ; preds = %_ZN9QtPrivate8RefCount5derefEv.exit.i
  %.pre.i = load ptr, ptr %4, align 8
  br label %_ZN9QtPrivate8RefCount5derefEv.exit.thread2.i

_ZN9QtPrivate8RefCount5derefEv.exit.thread2.i:    ; preds = %_ZN9QtPrivate8RefCount5derefEv.exit._ZN9QtPrivate8RefCount5derefEv.exit.thread2_crit_edge.i, %48
  %52 = phi ptr [ %.pre.i, %_ZN9QtPrivate8RefCount5derefEv.exit._ZN9QtPrivate8RefCount5derefEv.exit.thread2_crit_edge.i ], [ %49, %48 ]
  call void @_ZN10QArrayData10deallocateEPS_mm(ptr noundef %52, i64 noundef 2, i64 noundef 8) #21
  br label %_ZN7QStringD2Ev.exit

_ZN7QStringD2Ev.exit:                             ; preds = %48, %_ZN9QtPrivate8RefCount5derefEv.exit.i, %_ZN9QtPrivate8RefCount5derefEv.exit.thread2.i
  call void @_ZN6QImageD1Ev(ptr noundef nonnull align 8 dereferenceable(32) %3) #21
  call void @_ZN6QImageD1Ev(ptr noundef nonnull align 8 dereferenceable(32) %2) #21
  ret void

53:                                               ; preds = %_ZNKR6QImage8mirroredEbb.exit
  %54 = landingpad { ptr, i32 }
          cleanup
  br label %57

55:                                               ; preds = %46
  %56 = landingpad { ptr, i32 }
          cleanup
  call void @_ZN7QStringD2Ev(ptr noundef nonnull align 8 dereferenceable(8) %4) #21
  br label %57

57:                                               ; preds = %55, %53
  %.pn = phi { ptr, i32 } [ %56, %55 ], [ %54, %53 ]
  call void @_ZN6QImageD1Ev(ptr noundef nonnull align 8 dereferenceable(32) %3) #21
  br label %58

58:                                               ; preds = %.loopexit, %.loopexit.split-lp, %57
  %.pn23 = phi { ptr, i32 } [ %.pn, %57 ], [ %lpad.loopexit, %.loopexit ], [ %lpad.loopexit.split-lp, %.loopexit.split-lp ]
  call void @_ZN6QImageD1Ev(ptr noundef nonnull align 8 dereferenceable(32) %2) #21
  resume { ptr, i32 } %.pn23
}